target datalayout = "e-m:e-p270:32:32-p271:32:32-p272:64:64-i64:64-i128:128-f80:128-n8:16:32:64-S128"
target triple = "x86_64-pc-linux-gnu"

%struct._lv_global_t = type { i8, i8, %struct.lv_ll_t, ptr, ptr, %struct.lv_ll_t, i8, i32, i32, ptr, %struct.lv_ll_t, ptr, %struct.lv_ll_t, ptr, ptr, i32, ptr, i8, i32, i32, ptr, i32, %struct.lv_timer_state_t, %struct.lv_anim_state_t, %struct.lv_tick_state_t, %struct._lv_draw_buf_handlers_t, %struct._lv_draw_buf_handlers_t, %struct._lv_draw_buf_handlers_t, %struct.lv_ll_t, ptr, ptr, %struct.lv_draw_global_info_t, [4 x %struct.lv_draw_sw_mask_radius_circle_dsc_t], ptr, ptr, ptr, %struct.lv_tlsf_state_t, %struct.lv_ll_t, ptr, ptr, %struct.lv_style_t, i64, ptr, i32, ptr }
%struct.lv_timer_state_t = type { %struct.lv_ll_t, i8, i8, i8, i8, i32, i8, i32, i32, i32, i32, ptr, ptr }
%struct.lv_anim_state_t = type { i8, i8, ptr, %struct.lv_ll_t }
%struct.lv_tick_state_t = type { i32, i8, ptr, ptr }
%struct._lv_draw_buf_handlers_t = type { ptr, ptr, ptr, ptr, ptr, ptr }
%struct.lv_draw_global_info_t = type { ptr, i32, i32, i32, i32, i8 }
%struct.lv_draw_sw_mask_radius_circle_dsc_t = type { ptr, ptr, ptr, ptr, i32, i32, i32 }
%struct.lv_tlsf_state_t = type { ptr, i64, i64, %struct.lv_ll_t }
%struct.lv_ll_t = type { i32, ptr, ptr }
%struct.lv_style_t = type { ptr, i32, i8 }
%struct._lv_draw_sw_mask_common_dsc_t = type { ptr, i32 }
%struct._lv_draw_sw_mask_radius_param_t = type { %struct._lv_draw_sw_mask_common_dsc_t, %struct.anon, ptr }
%struct.anon = type { %struct.lv_area_t, i32, i8 }
%struct.lv_area_t = type { i32, i32, i32, i32 }

@lv_global = external global %struct._lv_global_t, align 8

; Function Attrs: nounwind uwtable
define void @lv_draw_sw_mask_free_param(ptr noundef %0) #0 {
  %2 = alloca ptr, align 8
  %3 = alloca ptr, align 8
  %4 = alloca ptr, align 8
  store ptr %0, ptr %2, align 8, !tbaa !3
  %5 = call i32 @lv_mutex_lock(ptr noundef getelementptr inbounds nuw (%struct.lv_draw_global_info_t, ptr getelementptr inbounds nuw (%struct._lv_global_t, ptr @lv_global, i32 0, i32 31), i32 0, i32 4))
  call void @llvm.lifetime.start.p0(i64 8, ptr %3) #4
  %6 = load ptr, ptr %2, align 8, !tbaa !3
  store ptr %6, ptr %3, align 8, !tbaa !3
  %7 = load ptr, ptr %3, align 8, !tbaa !3
  %8 = getelementptr inbounds nuw %struct._lv_draw_sw_mask_common_dsc_t, ptr %7, i32 0, i32 1
  %9 = load i32, ptr %8, align 8, !tbaa !17
  %10 = icmp eq i32 %9, 2
  br i1 %10, label %11, label %42

11:                                               ; preds = %1
  call void @llvm.lifetime.start.p0(i64 8, ptr %4) #4
  %12 = load ptr, ptr %2, align 8, !tbaa !3
  store ptr %12, ptr %4, align 8, !tbaa !3
  %13 = load ptr, ptr %4, align 8, !tbaa !3
  %14 = getelementptr inbounds nuw %struct._lv_draw_sw_mask_radius_param_t, ptr %13, i32 0, i32 2
  %15 = load ptr, ptr %14, align 8, !tbaa !18
  %16 = icmp ne ptr %15, null
  br i1 %16, label %17, label %41

17:                                               ; preds = %11
  %18 = load ptr, ptr %4, align 8, !tbaa !3
  %19 = getelementptr inbounds nuw %struct._lv_draw_sw_mask_radius_param_t, ptr %18, i32 0, i32 2
  %20 = load ptr, ptr %19, align 8, !tbaa !18
  %21 = getelementptr inbounds nuw %struct.lv_draw_sw_mask_radius_circle_dsc_t, ptr %20, i32 0, i32 4
  %22 = load i32, ptr %21, align 8, !tbaa !22
  %23 = icmp slt i32 %22, 0
  br i1 %23, label %24, label %33

24:                                               ; preds = %17
  %25 = load ptr, ptr %4, align 8, !tbaa !3
  %26 = getelementptr inbounds nuw %struct._lv_draw_sw_mask_radius_param_t, ptr %25, i32 0, i32 2
  %27 = load ptr, ptr %26, align 8, !tbaa !18
  %28 = getelementptr inbounds nuw %struct.lv_draw_sw_mask_radius_circle_dsc_t, ptr %27, i32 0, i32 1
  %29 = load ptr, ptr %28, align 8, !tbaa !24
  call void @lv_free(ptr noundef %29)
  %30 = load ptr, ptr %4, align 8, !tbaa !3
  %31 = getelementptr inbounds nuw %struct._lv_draw_sw_mask_radius_param_t, ptr %30, i32 0, i32 2
  %32 = load ptr, ptr %31, align 8, !tbaa !18
  call void @lv_free(ptr noundef %32)
  br label %40

33:                                               ; preds = %17
  %34 = load ptr, ptr %4, align 8, !tbaa !3
  %35 = getelementptr inbounds nuw %struct._lv_draw_sw_mask_radius_param_t, ptr %34, i32 0, i32 2
  %36 = load ptr, ptr %35, align 8, !tbaa !18
  %37 = getelementptr inbounds nuw %struct.lv_draw_sw_mask_radius_circle_dsc_t, ptr %36, i32 0, i32 5
  %38 = load i32, ptr %37, align 4, !tbaa !25
  %39 = add i32 %38, -1
  store i32 %39, ptr %37, align 4, !tbaa !25
  br label %40

40:                                               ; preds = %33, %24
  br label %41

41:                                               ; preds = %40, %11
  call void @llvm.lifetime.end.p0(i64 8, ptr %4) #4
  br label %42

42:                                               ; preds = %41, %1
  %43 = call i32 @lv_mutex_unlock(ptr noundef getelementptr inbounds nuw (%struct.lv_draw_global_info_t, ptr getelementptr inbounds nuw (%struct._lv_global_t, ptr @lv_global, i32 0, i32 31), i32 0, i32 4))
  call void @llvm.lifetime.end.p0(i64 8, ptr %3) #4
  ret void
}