; Function Attrs: nounwind uwtable
define void @lv_draw_sw_mask_free_param(ptr nocapture noundef readonly %0) local_unnamed_addr #0 {
  %2 = tail call i32 @lv_mutex_lock(ptr noundef nonnull getelementptr inbounds nuw (i8, ptr @lv_global, i64 556)) #7
  %3 = getelementptr inbounds nuw i8, ptr %0, i64 8
  %4 = load i32, ptr %3, align 8, !tbaa !12
  %5 = icmp eq i32 %4, 2
  br i1 %5, label %6, label %21

6:                                                ; preds = %1
  %7 = getelementptr inbounds nuw i8, ptr %0, i64 40
  %8 = load ptr, ptr %7, align 8, !tbaa !13
  %.not = icmp eq ptr %8, null
  br i1 %.not, label %21, label %9

9:                                                ; preds = %6
  %10 = getelementptr inbounds nuw i8, ptr %8, i64 32
  %11 = load i32, ptr %10, align 8, !tbaa !17
  %12 = icmp slt i32 %11, 0
  br i1 %12, label %13, label %17

13:                                               ; preds = %9
  %14 = getelementptr inbounds nuw i8, ptr %8, i64 8
  %15 = load ptr, ptr %14, align 8, !tbaa !19
  tail call void @lv_free(ptr noundef %15) #7
  %16 = load ptr, ptr %7, align 8, !tbaa !13
  tail call void @lv_free(ptr noundef %16) #7
  br label %21

17:                                               ; preds = %9
  %18 = getelementptr inbounds nuw i8, ptr %8, i64 36
  %19 = load i32, ptr %18, align 4, !tbaa !20
  %20 = add i32 %19, -1
  store i32 %20, ptr %18, align 4, !tbaa !20
  br label %21

21:                                               ; preds = %6, %17, %13, %1
  %22 = tail call i32 @lv_mutex_unlock(ptr noundef nonnull getelementptr inbounds nuw (i8, ptr @lv_global, i64 556)) #7
  ret void
}